; Function Attrs: mustprogress uwtable
define dso_local void @_ZN4Luau7CodeGen3X6416IrCallWrapperX6425renameConflictingRegisterENS1_11RegisterX64E(ptr noundef nonnull align 8 captures(none) dereferenceable(240) %0, i8 %1) local_unnamed_addr #4 align 2 {
  %3 = load ptr, ptr %0, align 8, !tbaa !70
  %4 = and i8 %1, 7
  %5 = tail call i8 @_ZN4Luau7CodeGen3X6413IrRegAllocX648allocRegENS1_7SizeX64Ej(ptr noundef nonnull align 8 dereferenceable(256) %3, i8 noundef zeroext %4, i32 noundef -1)
  %6 = icmp eq i8 %4, 5
  %7 = getelementptr inbounds nuw i8, ptr %0, i64 8
  %8 = load ptr, ptr %7, align 8, !tbaa !34
  %.sroa.333.0.insert.ext = zext i8 %5 to i64
  %.sroa.333.0.insert.shift = shl nuw nsw i64 %.sroa.333.0.insert.ext, 16
  %.sroa.232.0.insert.insert = or disjoint i64 %.sroa.333.0.insert.shift, 268468224
  %.sroa.328.0.insert.ext = zext i8 %1 to i64
  %.sroa.328.0.insert.shift = shl nuw nsw i64 %.sroa.328.0.insert.ext, 16
  %.sroa.227.0.insert.insert = or disjoint i64 %.sroa.328.0.insert.shift, 268468224
  br i1 %6, label %9, label %10

9:                                                ; preds = %2
  tail call void @_ZN4Luau7CodeGen3X6418AssemblyBuilderX646vmovsdENS1_10OperandX64ES3_S3_(ptr noundef nonnull align 8 dereferenceable(252) %8, i64 %.sroa.232.0.insert.insert, i64 %.sroa.227.0.insert.insert, i64 %.sroa.227.0.insert.insert)
  br label %11

10:                                               ; preds = %2
  tail call void @_ZN4Luau7CodeGen3X6418AssemblyBuilderX643movENS1_10OperandX64ES3_(ptr noundef nonnull align 8 dereferenceable(252) %8, i64 %.sroa.232.0.insert.insert, i64 %.sroa.227.0.insert.insert)
  br label %11

11:                                               ; preds = %10, %9
  %12 = getelementptr inbounds nuw i8, ptr %0, i64 188
  %13 = load i32, ptr %12, align 4, !tbaa !29
  %14 = icmp sgt i32 %13, 0
  br i1 %14, label %.lr.ph.i, label %_ZN4Luau7CodeGen3X6416IrCallWrapperX6421renameSourceRegistersENS1_11RegisterX64ES3_.exit

.lr.ph.i:                                         ; preds = %11
  %15 = getelementptr inbounds nuw i8, ptr %0, i64 20
  br label %16

16:                                               ; preds = %25, %.lr.ph.i
  %17 = phi i32 [ %13, %.lr.ph.i ], [ %26, %25 ]
  %indvars.iv.i = phi i64 [ 0, %.lr.ph.i ], [ %indvars.iv.next.i, %25 ]
  %18 = getelementptr inbounds nuw [6 x %"struct.Luau::CodeGen::X64::CallArgument"], ptr %15, i64 0, i64 %indvars.iv.i
  %19 = getelementptr inbounds nuw i8, ptr %18, i64 24
  %20 = load i8, ptr %19, align 4, !tbaa !28, !range !87, !noundef !88
  %21 = trunc nuw i8 %20 to i1
  br i1 %21, label %22, label %25

22:                                               ; preds = %16
  %23 = getelementptr inbounds nuw i8, ptr %18, i64 6
  tail call void @_ZN4Luau7CodeGen3X6416IrCallWrapperX6414renameRegisterERNS1_11RegisterX64ES3_S3_(ptr noundef nonnull align 8 dereferenceable(240) %0, ptr noundef nonnull align 1 dereferenceable(1) %23, i8 %1, i8 %5)
  %24 = getelementptr inbounds nuw i8, ptr %18, i64 5
  tail call void @_ZN4Luau7CodeGen3X6416IrCallWrapperX6414renameRegisterERNS1_11RegisterX64ES3_S3_(ptr noundef nonnull align 8 dereferenceable(240) %0, ptr noundef nonnull align 1 dereferenceable(1) %24, i8 %1, i8 %5)
  %.pre.i = load i32, ptr %12, align 4, !tbaa !29
  br label %25

25:                                               ; preds = %22, %16
  %26 = phi i32 [ %.pre.i, %22 ], [ %17, %16 ]
  %indvars.iv.next.i = add nuw nsw i64 %indvars.iv.i, 1
  %27 = sext i32 %26 to i64
  %28 = icmp slt i64 %indvars.iv.next.i, %27
  br i1 %28, label %16, label %_ZN4Luau7CodeGen3X6416IrCallWrapperX6421renameSourceRegistersENS1_11RegisterX64ES3_.exit, !llvm.loop !95

_ZN4Luau7CodeGen3X6416IrCallWrapperX6421renameSourceRegistersENS1_11RegisterX64ES3_.exit: ; preds = %25, %11
  %29 = getelementptr inbounds nuw i8, ptr %0, i64 202
  tail call void @_ZN4Luau7CodeGen3X6416IrCallWrapperX6414renameRegisterERNS1_11RegisterX64ES3_S3_(ptr noundef nonnull align 8 dereferenceable(240) %0, ptr noundef nonnull align 1 dereferenceable(1) %29, i8 %1, i8 %5)
  %30 = getelementptr inbounds nuw i8, ptr %0, i64 201
  tail call void @_ZN4Luau7CodeGen3X6416IrCallWrapperX6414renameRegisterERNS1_11RegisterX64ES3_S3_(ptr noundef nonnull align 8 dereferenceable(240) %0, ptr noundef nonnull align 1 dereferenceable(1) %30, i8 %1, i8 %5)
  ret void
}